target datalayout = "e-m:e-p270:32:32-p271:32:32-p272:64:64-i64:64-i128:128-f80:128-n8:16:32:64-S128"
target triple = "x86_64-pc-linux-gnu"

%struct.mbedtls_ecp_keypair = type { %struct.mbedtls_ecp_group, %struct.mbedtls_mpi, %struct.mbedtls_ecp_point }
%struct.mbedtls_ecp_group = type { i32, %struct.mbedtls_mpi, %struct.mbedtls_mpi, %struct.mbedtls_mpi, %struct.mbedtls_ecp_point, %struct.mbedtls_mpi, i64, i64, i32, ptr, ptr, ptr, ptr, ptr, i64 }
%struct.mbedtls_mpi = type { ptr, i16, i16 }
%struct.mbedtls_ecp_point = type { %struct.mbedtls_mpi, %struct.mbedtls_mpi, %struct.mbedtls_mpi }
%struct.psa_key_attributes_s = type { i16, i16, i32, %struct.psa_key_policy_s, i32 }
%struct.psa_key_policy_s = type { i32, i32, i32 }

; Function Attrs: nounwind uwtable
define hidden i32 @mbedtls_psa_ecp_import_key(ptr noundef %0, ptr noundef %1, i64 noundef %2, ptr noundef %3, i64 noundef %4, ptr noundef %5, ptr noundef %6) #0 {
  %8 = alloca ptr, align 8
  %9 = alloca ptr, align 8
  %10 = alloca i64, align 8
  %11 = alloca ptr, align 8
  %12 = alloca i64, align 8
  %13 = alloca ptr, align 8
  %14 = alloca ptr, align 8
  %15 = alloca i32, align 4
  %16 = alloca ptr, align 8
  store ptr %0, ptr %8, align 8, !tbaa !28
  store ptr %1, ptr %9, align 8, !tbaa !9
  store i64 %2, ptr %10, align 8, !tbaa !7
  store ptr %3, ptr %11, align 8, !tbaa !9
  store i64 %4, ptr %12, align 8, !tbaa !7
  store ptr %5, ptr %13, align 8, !tbaa !27
  store ptr %6, ptr %14, align 8, !tbaa !27
  call void @llvm.lifetime.start.p0(i64 4, ptr %15) #7
  call void @llvm.lifetime.start.p0(i64 8, ptr %16) #7
  store ptr null, ptr %16, align 8, !tbaa !17
  %17 = load ptr, ptr %8, align 8, !tbaa !28
  %18 = getelementptr inbounds nuw %struct.psa_key_attributes_s, ptr %17, i32 0, i32 0
  %19 = load i16, ptr %18, align 4, !tbaa !30
  %20 = load ptr, ptr %8, align 8, !tbaa !28
  %21 = getelementptr inbounds nuw %struct.psa_key_attributes_s, ptr %20, i32 0, i32 1
  %22 = load i16, ptr %21, align 2, !tbaa !33
  %23 = zext i16 %22 to i64
  %24 = load ptr, ptr %9, align 8, !tbaa !9
  %25 = load i64, ptr %10, align 8, !tbaa !7
  %26 = call i32 @mbedtls_psa_ecp_load_representation(i16 noundef zeroext %19, i64 noundef %23, ptr noundef %24, i64 noundef %25, ptr noundef %16)
  store i32 %26, ptr %15, align 4, !tbaa !15
  %27 = load i32, ptr %15, align 4, !tbaa !15
  %28 = icmp ne i32 %27, 0
  br i1 %28, label %29, label %30

29:                                               ; preds = %7
  br label %72

30:                                               ; preds = %7
  %31 = load ptr, ptr %8, align 8, !tbaa !28
  %32 = getelementptr inbounds nuw %struct.psa_key_attributes_s, ptr %31, i32 0, i32 0
  %33 = load i16, ptr %32, align 4, !tbaa !30
  %34 = zext i16 %33 to i32
  %35 = and i32 %34, -12289
  %36 = and i32 %35, -256
  %37 = icmp eq i32 %36, 16640
  br i1 %37, label %38, label %44

38:                                               ; preds = %30
  %39 = load ptr, ptr %8, align 8, !tbaa !28
  %40 = getelementptr inbounds nuw %struct.psa_key_attributes_s, ptr %39, i32 0, i32 0
  %41 = load i16, ptr %40, align 4, !tbaa !30
  %42 = zext i16 %41 to i32
  %43 = and i32 %42, 255
  br label %45

44:                                               ; preds = %30
  br label %45

45:                                               ; preds = %44, %38
  %46 = phi i32 [ %43, %38 ], [ 0, %44 ]
  %47 = trunc i32 %46 to i8
  %48 = zext i8 %47 to i32
  %49 = icmp eq i32 %48, 65
  br i1 %49, label %50, label %57

50:                                               ; preds = %45
  %51 = load ptr, ptr %16, align 8, !tbaa !17
  %52 = getelementptr inbounds nuw %struct.mbedtls_ecp_keypair, ptr %51, i32 0, i32 0
  %53 = getelementptr inbounds nuw %struct.mbedtls_ecp_group, ptr %52, i32 0, i32 7
  %54 = load i64, ptr %53, align 8, !tbaa !34
  %55 = add i64 %54, 1
  %56 = load ptr, ptr %14, align 8, !tbaa !27
  store i64 %55, ptr %56, align 8, !tbaa !7
  br label %63

57:                                               ; preds = %45
  %58 = load ptr, ptr %16, align 8, !tbaa !17
  %59 = getelementptr inbounds nuw %struct.mbedtls_ecp_keypair, ptr %58, i32 0, i32 0
  %60 = getelementptr inbounds nuw %struct.mbedtls_ecp_group, ptr %59, i32 0, i32 7
  %61 = load i64, ptr %60, align 8, !tbaa !34
  %62 = load ptr, ptr %14, align 8, !tbaa !27
  store i64 %61, ptr %62, align 8, !tbaa !7
  br label %63

63:                                               ; preds = %57, %50
  %64 = load ptr, ptr %8, align 8, !tbaa !28
  %65 = getelementptr inbounds nuw %struct.psa_key_attributes_s, ptr %64, i32 0, i32 0
  %66 = load i16, ptr %65, align 4, !tbaa !30
  %67 = load ptr, ptr %16, align 8, !tbaa !17
  %68 = load ptr, ptr %11, align 8, !tbaa !9
  %69 = load i64, ptr %12, align 8, !tbaa !7
  %70 = load ptr, ptr %13, align 8, !tbaa !27
  %71 = call i32 @mbedtls_psa_ecp_export_key(i16 noundef zeroext %66, ptr noundef %67, ptr noundef %68, i64 noundef %69, ptr noundef %70)
  store i32 %71, ptr %15, align 4, !tbaa !15
  br label %72

72:                                               ; preds = %63, %29
  %73 = load ptr, ptr %16, align 8, !tbaa !17
  call void @mbedtls_ecp_keypair_free(ptr noundef %73)
  %74 = load ptr, ptr %16, align 8, !tbaa !17
  call void @free(ptr noundef %74) #7
  %75 = load i32, ptr %15, align 4, !tbaa !15
  call void @llvm.lifetime.end.p0(i64 8, ptr %16) #7
  call void @llvm.lifetime.end.p0(i64 4, ptr %15) #7
  ret i32 %75
}