; Function Attrs: nounwind uwtable
define hidden i32 @mbedtls_psa_ecp_import_key(ptr noundef readonly captures(none) %0, ptr noundef %1, i64 noundef %2, ptr noundef %3, i64 noundef %4, ptr noundef %5, ptr noundef writeonly captures(none) %6) local_unnamed_addr #0 {
  %8 = alloca ptr, align 8
  call void @llvm.lifetime.start.p0(i64 8, ptr nonnull %8) #7
  store ptr null, ptr %8, align 8, !tbaa !16
  %9 = load i16, ptr %0, align 4, !tbaa !18
  %10 = getelementptr inbounds nuw i8, ptr %0, i64 2
  %11 = load i16, ptr %10, align 2, !tbaa !21
  %12 = zext i16 %11 to i64
  %13 = call i32 @mbedtls_psa_ecp_load_representation(i16 noundef zeroext %9, i64 noundef %12, ptr noundef %1, i64 noundef %2, ptr noundef nonnull %8)
  %.not = icmp eq i32 %13, 0
  br i1 %.not, label %14, label %._crit_edge

._crit_edge:                                      ; preds = %7
  %.pre = load ptr, ptr %8, align 8, !tbaa !16
  br label %23

14:                                               ; preds = %7
  %15 = load i16, ptr %0, align 4, !tbaa !18
  %16 = and i16 %15, -12289
  %17 = icmp eq i16 %16, 16705
  %18 = load ptr, ptr %8, align 8, !tbaa !16
  %19 = getelementptr inbounds nuw i8, ptr %18, i64 128
  %20 = load i64, ptr %19, align 8, !tbaa !22
  %21 = zext i1 %17 to i64
  %storemerge = add i64 %20, %21
  store i64 %storemerge, ptr %6, align 8, !tbaa !23
  %22 = tail call i32 @mbedtls_psa_ecp_export_key(i16 noundef zeroext %15, ptr noundef nonnull %18, ptr noundef %3, i64 noundef %4, ptr noundef %5)
  br label %23

23:                                               ; preds = %._crit_edge, %14
  %24 = phi ptr [ %.pre, %._crit_edge ], [ %18, %14 ]
  %.0 = phi i32 [ %13, %._crit_edge ], [ %22, %14 ]
  tail call void @mbedtls_ecp_keypair_free(ptr noundef %24) #7
  tail call void @free(ptr noundef %24) #7
  call void @llvm.lifetime.end.p0(i64 8, ptr nonnull %8) #7
  ret i32 %.0
}